; Function Attrs: mustprogress nounwind uwtable
define hidden noundef ptr @_ZN6hermes5irgen11ESTreeIRGen19genYieldOrAwaitExprEPNS_5ValueE(ptr noundef nonnull align 8 dereferenceable(200) %this, ptr noundef %value) local_unnamed_addr #0 align 2 {
entry:
  %Builder = getelementptr inbounds i8, ptr %this, i64 8
  %call = tail call noundef ptr @_ZN6hermes9IRBuilder17getInsertionBlockEv(ptr noundef nonnull align 8 dereferenceable(40) %Builder) #16
  %Parent.i = getelementptr inbounds i8, ptr %call, i64 72
  %0 = load ptr, ptr %Parent.i, align 8
  %call4 = tail call noundef ptr @_ZN6hermes9IRBuilder16createBasicBlockEPNS_8FunctionE(ptr noundef nonnull align 8 dereferenceable(40) %Builder, ptr noundef %0) #16
  %functionContext_.i.i = getelementptr inbounds i8, ptr %this, i64 80
  %1 = load ptr, ptr %functionContext_.i.i, align 8
  %call2.i = tail call ptr @_ZN6hermes5irgen15FunctionContext21genAnonymousLabelNameEN4llvh9StringRefE(ptr noundef nonnull align 8 dereferenceable(480) %1, ptr nonnull @.str.16, i64 8) #16
  %call9 = tail call noundef ptr @_ZN6hermes9IRBuilder20createAllocStackInstENS_10IdentifierE(ptr noundef nonnull align 8 dereferenceable(40) %Builder, ptr %call2.i) #16
  %call11 = tail call noundef ptr @_ZN6hermes9IRBuilder22createSaveAndYieldInstEPNS_5ValueEPNS_10BasicBlockE(ptr noundef nonnull align 8 dereferenceable(40) %Builder, ptr noundef %value, ptr noundef %call4) #16
  tail call void @_ZN6hermes9IRBuilder17setInsertionBlockEPNS_10BasicBlockE(ptr noundef nonnull align 8 dereferenceable(40) %Builder, ptr noundef %call4) #16
  %2 = load ptr, ptr %Parent.i, align 8
  %call15 = tail call noundef ptr @_ZN6hermes9IRBuilder16createBasicBlockEPNS_8FunctionE(ptr noundef nonnull align 8 dereferenceable(40) %Builder, ptr noundef %2) #16
  %3 = icmp eq ptr %call9, null
  %add.ptr.i = getelementptr inbounds i8, ptr %call9, i64 16
  %spec.select.i = select i1 %3, ptr null, ptr %add.ptr.i
  %call.i = tail call noundef ptr @_ZN6hermes9IRBuilder25createResumeGeneratorInstEPNS_5ValueE(ptr noundef nonnull align 8 dereferenceable(40) %Builder, ptr noundef %spec.select.i) #16
  %call10.c.i = tail call noundef ptr @_ZN6hermes9IRBuilder17getInsertionBlockEv(ptr noundef nonnull align 8 dereferenceable(40) %Builder) #16
  %Parent.i14.i = getelementptr inbounds i8, ptr %call10.c.i, i64 72
  %4 = load ptr, ptr %Parent.i14.i, align 8
  %call12.c.i = tail call noundef ptr @_ZN6hermes9IRBuilder16createBasicBlockEPNS_8FunctionE(ptr noundef nonnull align 8 dereferenceable(40) %Builder, ptr noundef %4) #16
  %call15.c.i = tail call noundef ptr @_ZN6hermes9IRBuilder19createLoadStackInstEPNS_14AllocStackInstE(ptr noundef nonnull align 8 dereferenceable(40) %Builder, ptr noundef %call9) #16
  %5 = icmp eq ptr %call15.c.i, null
  %add.ptr17.c.i = getelementptr inbounds i8, ptr %call15.c.i, i64 16
  %spec.select2.c.i = select i1 %5, ptr null, ptr %add.ptr17.c.i
  %call20.c.i = tail call noundef ptr @_ZN6hermes9IRBuilder20createCondBranchInstEPNS_5ValueEPNS_10BasicBlockES4_(ptr noundef nonnull align 8 dereferenceable(40) %Builder, ptr noundef %spec.select2.c.i, ptr noundef %call12.c.i, ptr noundef %call15) #16
  tail call void @_ZN6hermes9IRBuilder17setInsertionBlockEPNS_10BasicBlockE(ptr noundef nonnull align 8 dereferenceable(40) %Builder, ptr noundef %call12.c.i) #16
  %6 = load ptr, ptr %functionContext_.i.i, align 8
  %surroundingTry.i = getelementptr inbounds i8, ptr %6, i64 120
  %7 = load ptr, ptr %surroundingTry.i, align 8
  tail call void @_ZN6hermes5irgen11ESTreeIRGen29genFinallyBeforeControlChangeEPNS0_14SurroundingTryES3_NS0_17ControlFlowChangeEPNS_10BasicBlockE(ptr noundef nonnull align 8 dereferenceable(200) %this, ptr noundef %7, ptr noundef null, i32 noundef 0, ptr noundef null) #16
  %8 = icmp eq ptr %call.i, null
  %add.ptr36.i = getelementptr inbounds i8, ptr %call.i, i64 16
  %spec.select4.i = select i1 %8, ptr null, ptr %add.ptr36.i
  %call39.i = tail call noundef ptr @_ZN6hermes9IRBuilder16createReturnInstEPNS_5ValueE(ptr noundef nonnull align 8 dereferenceable(40) %Builder, ptr noundef %spec.select4.i) #16
  tail call void @_ZN6hermes9IRBuilder17setInsertionBlockEPNS_10BasicBlockE(ptr noundef nonnull align 8 dereferenceable(40) %Builder, ptr noundef %call15) #16
  ret ptr %spec.select4.i
}